target datalayout = "e-m:e-p270:32:32-p271:32:32-p272:64:64-i64:64-i128:128-f80:128-n8:16:32:64-S128"
target triple = "x86_64-pc-linux-gnu"

%"class.sls::bv_plugin" = type <{ %"class.sls::plugin.base", [4 x i8], %class.bv_util, %"class.sls::bv_terms", %"class.sls::bv_eval", %"class.bv::sls_stats", i8, [7 x i8] }>
%"class.sls::plugin.base" = type <{ ptr, ptr, ptr, i32 }>
%class.bv_util = type { %class.bv_recognizers, ptr, ptr }
%class.bv_recognizers = type { i32 }
%"class.sls::bv_terms" = type { ptr, ptr, %class.bv_util, %class.ref_vector, %class.vector.0 }
%class.ref_vector = type { %class.ref_vector_core }
%class.ref_vector_core = type { %class.ref_manager_wrapper, %class.ptr_vector }
%class.ref_manager_wrapper = type { ptr }
%class.ptr_vector = type { %class.vector }
%class.vector = type { ptr }
%class.vector.0 = type { ptr }
%"class.sls::bv_eval" = type <{ ptr, ptr, ptr, %"class.sls::bv_lookahead", %class.bv_util, %"class.sls::bv_fixed", [8 x i8], %class.ptr_vector, %class.random_gen, %"struct.sls::bv_eval::config", %class.svector.8, i32, i32, %class.svector.10, %class.svector.12, %class.scoped_ptr_vector, %"class.sls::bvect", %"class.sls::bvect", %"class.sls::bvect", %"class.sls::bvect", %"class.sls::bvect", %"class.sls::bvect", %"class.sls::bvect", %"class.sls::bvect", %"class.sls::bvect", %"class.sls::bvect", %"class.sls::bvect", %"class.sls::bvect", %"class.sls::bvect", i8, [7 x i8] }>
%"class.sls::bv_lookahead" = type { %class.bv_util, ptr, ptr, ptr, %"struct.sls::bv_lookahead::config", %"struct.sls::bv_lookahead::stats", %"class.sls::bvect", %"class.sls::bvect", %class.ptr_vector, %class.svector.2, %class.vector.4, %class.obj_mark, double, double, %"class.sls::bvect", ptr, ptr, %class.ptr_vector, %class.vector.5, %class.obj_mark, i32, %class.tracked_uint_set, i32, i32 }
%"struct.sls::bv_lookahead::config" = type <{ i8, [7 x i8], double, i32, i32, i8, i8, i8, i8, i32, i32, i32, i32, i8, [3 x i8], i32, i32, i32, i8, [3 x i8], double, double, i8, [7 x i8], double, i8, i8, i8, [5 x i8] }>
%"struct.sls::bv_lookahead::stats" = type { i32, i32, i32, i32, i32, i32 }
%class.svector.2 = type { %class.vector.3 }
%class.vector.3 = type { ptr }
%class.vector.4 = type { ptr }
%class.vector.5 = type { ptr }
%class.obj_mark = type { [8 x i8], %class.bit_vector }
%class.bit_vector = type { i32, i32, ptr }
%class.tracked_uint_set = type { %class.svector.6, %class.svector }
%class.svector.6 = type { %class.vector.7 }
%class.vector.7 = type { ptr }
%class.svector = type { %class.vector.1 }
%class.vector.1 = type { ptr }
%"class.sls::bv_fixed" = type { ptr, ptr, ptr, ptr, ptr }
%class.random_gen = type { i32 }
%"struct.sls::bv_eval::config" = type { i32 }
%class.svector.8 = type { %class.vector.9 }
%class.vector.9 = type { ptr }
%class.svector.10 = type { %class.vector.11 }
%class.vector.11 = type { ptr }
%class.svector.12 = type { %class.vector.13 }
%class.vector.13 = type { ptr }
%class.scoped_ptr_vector = type { %class.ptr_vector.14 }
%class.ptr_vector.14 = type { %class.vector.15 }
%class.vector.15 = type { ptr }
%"class.sls::bvect" = type <{ %class.svector, i32, i32, i32, [4 x i8] }>
%"class.bv::sls_stats" = type { i32, i32, i32, i32, i32, i32, i32, i32, %class.stopwatch }
%class.stopwatch = type <{ %"class.std::chrono::time_point", %"class.std::chrono::duration", i8, [7 x i8] }>
%"class.std::chrono::time_point" = type { %"class.std::chrono::duration" }
%"class.std::chrono::duration" = type { i64 }
%"class.sls::plugin" = type <{ ptr, ptr, ptr, i32, [4 x i8] }>
%struct.mk_bounded_pp = type <{ ptr, ptr, i32, [4 x i8] }>
%"class.std::ios_base" = type { ptr, i64, i64, i32, i32, i32, ptr, %"struct.std::ios_base::_Words", [8 x %"struct.std::ios_base::_Words"], i32, ptr, %"class.std::locale" }
%"struct.std::ios_base::_Words" = type { ptr, i64 }
%"class.std::locale" = type { ptr }

@.str.1 = private unnamed_addr constant [2 x i8] c" \00", align 1
@.str.2 = private unnamed_addr constant [2 x i8] c"\0A\00", align 1
@.str.11 = private unnamed_addr constant [2 x i8] c"u\00", align 1
@.str.12 = private unnamed_addr constant [2 x i8] c"d\00", align 1
@.str.13 = private unnamed_addr constant [2 x i8] c"S\00", align 1
@.str.14 = private unnamed_addr constant [2 x i8] c"F\00", align 1

; Function Attrs: inlinehint mustprogress nounwind uwtable
define linkonce_odr noundef i32 @_ZStorSt12_Ios_IostateS_(i32 noundef %0, i32 noundef %1) #5 comdat {
  %3 = alloca i32, align 4
  %4 = alloca i32, align 4
  store i32 %0, ptr %3, align 4, !tbaa !287
  store i32 %1, ptr %4, align 4, !tbaa !287
  %5 = load i32, ptr %3, align 4, !tbaa !287
  %6 = load i32, ptr %4, align 4, !tbaa !287
  %7 = or i32 %5, %6
  ret i32 %7
}

; Function Attrs: mustprogress nounwind uwtable
define available_externally noundef i32 @_ZNKSt9basic_iosIcSt11char_traitsIcEE7rdstateEv(ptr noundef nonnull align 8 dereferenceable(264) %0) #6 align 2 {
  %2 = alloca ptr, align 8
  store ptr %0, ptr %2, align 8, !tbaa !285
  %3 = load ptr, ptr %2, align 8
  %4 = getelementptr inbounds nuw %"class.std::ios_base", ptr %3, i32 0, i32 5
  %5 = load i32, ptr %4, align 8, !tbaa !289
  ret i32 %5
}

; Function Attrs: mustprogress nounwind uwtable
define linkonce_odr hidden noundef i64 @_ZNSt11char_traitsIcE6lengthEPKc(ptr noundef %0) #6 comdat align 2 {
  %2 = alloca ptr, align 8
  store ptr %0, ptr %2, align 8, !tbaa !144
  %3 = load ptr, ptr %2, align 8, !tbaa !144
  %4 = call i64 @strlen(ptr noundef %3) #3
  ret i64 %4
}

; Function Attrs: mustprogress uwtable
define available_externally void @_ZNSt9basic_iosIcSt11char_traitsIcEE8setstateESt12_Ios_Iostate(ptr noundef nonnull align 8 dereferenceable(264) %0, i32 noundef %1) #4 align 2 {
  %3 = alloca ptr, align 8
  %4 = alloca i32, align 4
  store ptr %0, ptr %3, align 8, !tbaa !285
  store i32 %1, ptr %4, align 4, !tbaa !287
  %5 = load ptr, ptr %3, align 8
  %6 = call noundef i32 @_ZNKSt9basic_iosIcSt11char_traitsIcEE7rdstateEv(ptr noundef nonnull align 8 dereferenceable(264) %5)
  %7 = load i32, ptr %4, align 4, !tbaa !287
  %8 = call noundef i32 @_ZStorSt12_Ios_IostateS_(i32 noundef %6, i32 noundef %7)
  call void @_ZNSt9basic_iosIcSt11char_traitsIcEE5clearESt12_Ios_Iostate(ptr noundef nonnull align 8 dereferenceable(264) %5, i32 noundef %8)
  ret void
}

; Function Attrs: inlinehint mustprogress uwtable
define linkonce_odr hidden noundef nonnull align 8 dereferenceable(8) ptr @_ZN3slslsERSoRKNS_12bv_valuationE(ptr noundef nonnull align 8 dereferenceable(8) %0, ptr noundef nonnull align 8 dereferenceable(184) %1) #9 comdat {
  %3 = alloca ptr, align 8
  %4 = alloca ptr, align 8
  store ptr %0, ptr %3, align 8, !tbaa !142
  store ptr %1, ptr %4, align 8, !tbaa !98
  %5 = load ptr, ptr %4, align 8, !tbaa !98
  %6 = load ptr, ptr %3, align 8, !tbaa !142
  %7 = call noundef nonnull align 8 dereferenceable(8) ptr @_ZNK3sls12bv_valuation7displayERSo(ptr noundef nonnull align 8 dereferenceable(184) %5, ptr noundef nonnull align 8 dereferenceable(8) %6)
  ret ptr %7
}

; Function Attrs: mustprogress uwtable
define linkonce_odr hidden noundef zeroext i1 @_ZNK14bv_recognizers5is_bvEPK4expr(ptr noundef nonnull align 4 dereferenceable(4) %0, ptr noundef %1) #4 comdat align 2 {
  %3 = alloca ptr, align 8
  %4 = alloca ptr, align 8
  store ptr %0, ptr %3, align 8, !tbaa !91
  store ptr %1, ptr %4, align 8, !tbaa !97
  %5 = load ptr, ptr %3, align 8
  %6 = load ptr, ptr %4, align 8, !tbaa !97
  %7 = call noundef ptr @_ZNK4expr8get_sortEv(ptr noundef nonnull align 4 dereferenceable(16) %6)
  %8 = call noundef zeroext i1 @_ZNK14bv_recognizers10is_bv_sortEPK4sort(ptr noundef nonnull align 4 dereferenceable(4) %5, ptr noundef %7)
  ret i1 %8
}

; Function Attrs: inlinehint mustprogress uwtable
define available_externally noundef nonnull align 8 dereferenceable(8) ptr @_ZStlsISt11char_traitsIcEERSt13basic_ostreamIcT_ES5_PKc(ptr noundef nonnull align 8 dereferenceable(8) %0, ptr noundef %1) #9 {
  %3 = alloca ptr, align 8
  %4 = alloca ptr, align 8
  store ptr %0, ptr %3, align 8, !tbaa !142
  store ptr %1, ptr %4, align 8, !tbaa !144
  %5 = load ptr, ptr %4, align 8, !tbaa !144
  %6 = icmp ne ptr %5, null
  br i1 %6, label %13, label %7

7:                                                ; preds = %2
  %8 = load ptr, ptr %3, align 8, !tbaa !142
  %9 = load ptr, ptr %8, align 8, !tbaa !10
  %10 = getelementptr i8, ptr %9, i64 -24
  %11 = load i64, ptr %10, align 8
  %12 = getelementptr inbounds i8, ptr %8, i64 %11
  call void @_ZNSt9basic_iosIcSt11char_traitsIcEE8setstateESt12_Ios_Iostate(ptr noundef nonnull align 8 dereferenceable(264) %12, i32 noundef 1)
  br label %19

13:                                               ; preds = %2
  %14 = load ptr, ptr %3, align 8, !tbaa !142
  %15 = load ptr, ptr %4, align 8, !tbaa !144
  %16 = load ptr, ptr %4, align 8, !tbaa !144
  %17 = call noundef i64 @_ZNSt11char_traitsIcE6lengthEPKc(ptr noundef %16)
  %18 = call noundef nonnull align 8 dereferenceable(8) ptr @_ZSt16__ostream_insertIcSt11char_traitsIcEERSt13basic_ostreamIT_T0_ES6_PKS3_l(ptr noundef nonnull align 8 dereferenceable(8) %14, ptr noundef %15, i64 noundef %17)
  br label %19

19:                                               ; preds = %13, %7
  %20 = load ptr, ptr %3, align 8, !tbaa !142
  ret ptr %20
}

; Function Attrs: inlinehint mustprogress uwtable
define linkonce_odr hidden noundef nonnull align 8 dereferenceable(8) ptr @_ZlsRSoRK13mk_bounded_pp(ptr noundef nonnull align 8 dereferenceable(8) %0, ptr noundef nonnull align 8 dereferenceable(20) %1) #9 comdat {
  %3 = alloca ptr, align 8
  %4 = alloca ptr, align 8
  store ptr %0, ptr %3, align 8, !tbaa !142
  store ptr %1, ptr %4, align 8, !tbaa !145
  %5 = load ptr, ptr %3, align 8, !tbaa !142
  %6 = load ptr, ptr %4, align 8, !tbaa !145
  %7 = getelementptr inbounds nuw %struct.mk_bounded_pp, ptr %6, i32 0, i32 1
  %8 = load ptr, ptr %7, align 8, !tbaa !147
  %9 = load ptr, ptr %4, align 8, !tbaa !145
  %10 = getelementptr inbounds nuw %struct.mk_bounded_pp, ptr %9, i32 0, i32 0
  %11 = load ptr, ptr %10, align 8, !tbaa !149
  %12 = load ptr, ptr %4, align 8, !tbaa !145
  %13 = getelementptr inbounds nuw %struct.mk_bounded_pp, ptr %12, i32 0, i32 2
  %14 = load i32, ptr %13, align 8, !tbaa !150
  call void @_Z17ast_ll_bounded_ppRSoR11ast_managerP3astj(ptr noundef nonnull align 8 dereferenceable(8) %5, ptr noundef nonnull align 8 dereferenceable(976) %8, ptr noundef %11, i32 noundef %14)
  %15 = load ptr, ptr %3, align 8, !tbaa !142
  ret ptr %15
}

; Function Attrs: mustprogress nounwind uwtable
define linkonce_odr hidden void @_ZN13mk_bounded_ppC2EP3astR11ast_managerj(ptr noundef nonnull align 8 dereferenceable(20) %0, ptr noundef %1, ptr noundef nonnull align 8 dereferenceable(976) %2, i32 noundef %3) unnamed_addr #6 comdat align 2 {
  %5 = alloca ptr, align 8
  %6 = alloca ptr, align 8
  %7 = alloca ptr, align 8
  %8 = alloca i32, align 4
  store ptr %0, ptr %5, align 8, !tbaa !145
  store ptr %1, ptr %6, align 8, !tbaa !140
  store ptr %2, ptr %7, align 8, !tbaa !104
  store i32 %3, ptr %8, align 4, !tbaa !113
  %9 = load ptr, ptr %5, align 8
  %10 = getelementptr inbounds nuw %struct.mk_bounded_pp, ptr %9, i32 0, i32 0
  %11 = load ptr, ptr %6, align 8, !tbaa !140
  store ptr %11, ptr %10, align 8, !tbaa !149
  %12 = getelementptr inbounds nuw %struct.mk_bounded_pp, ptr %9, i32 0, i32 1
  %13 = load ptr, ptr %7, align 8, !tbaa !104
  store ptr %13, ptr %12, align 8, !tbaa !104
  %14 = getelementptr inbounds nuw %struct.mk_bounded_pp, ptr %9, i32 0, i32 2
  %15 = load i32, ptr %8, align 4, !tbaa !113
  store i32 %15, ptr %14, align 8, !tbaa !150
  ret void
}

; Function Attrs: mustprogress uwtable
define hidden void @_ZN3sls9bv_plugin3logEP4exprbb(ptr noundef nonnull align 8 dereferenceable(1049) %0, ptr noundef %1, i1 noundef zeroext %2, i1 noundef zeroext %3) #4 align 2 {
  %5 = alloca ptr, align 8
  %6 = alloca ptr, align 8
  %7 = alloca i8, align 1
  %8 = alloca i8, align 1
  %9 = alloca %struct.mk_bounded_pp, align 8
  %10 = alloca %struct.mk_bounded_pp, align 8
  store ptr %0, ptr %5, align 8, !tbaa !3
  store ptr %1, ptr %6, align 8, !tbaa !97
  %11 = zext i1 %2 to i8
  store i8 %11, ptr %7, align 1, !tbaa !158
  %12 = zext i1 %3 to i8
  store i8 %12, ptr %8, align 1, !tbaa !158
  %13 = load ptr, ptr %5, align 8
  %14 = call noundef i32 @_Z19get_verbosity_levelv()
  %15 = icmp uge i32 %14, 11
  br i1 %15, label %16, label %93

16:                                               ; preds = %4
  %17 = call noundef zeroext i1 @_Z11is_threadedv()
  br i1 %17, label %18, label %55

18:                                               ; preds = %16
  call void @_Z12verbose_lockv()
  %19 = call noundef nonnull align 8 dereferenceable(8) ptr @_Z14verbose_streamv()
  call void @llvm.lifetime.start.p0(i64 24, ptr %9) #3
  %20 = load ptr, ptr %6, align 8, !tbaa !97
  %21 = getelementptr inbounds nuw %"class.sls::plugin", ptr %13, i32 0, i32 2
  %22 = load ptr, ptr %21, align 8, !tbaa !12
  call void @_ZN13mk_bounded_ppC2EP3astR11ast_managerj(ptr noundef nonnull align 8 dereferenceable(20) %9, ptr noundef %20, ptr noundef nonnull align 8 dereferenceable(976) %22, i32 noundef 3)
  %23 = call noundef nonnull align 8 dereferenceable(8) ptr @_ZlsRSoRK13mk_bounded_pp(ptr noundef nonnull align 8 dereferenceable(8) %19, ptr noundef nonnull align 8 dereferenceable(20) %9)
  %24 = call noundef nonnull align 8 dereferenceable(8) ptr @_ZStlsISt11char_traitsIcEERSt13basic_ostreamIcT_ES5_PKc(ptr noundef nonnull align 8 dereferenceable(8) %23, ptr noundef @.str.1)
  %25 = load i8, ptr %7, align 1, !tbaa !158, !range !156, !noundef !157
  %26 = trunc i8 %25 to i1
  br i1 %26, label %27, label %28

27:                                               ; preds = %18
  br label %29

28:                                               ; preds = %18
  br label %29

29:                                               ; preds = %28, %27
  %30 = phi ptr [ @.str.11, %27 ], [ @.str.12, %28 ]
  %31 = getelementptr inbounds [2 x i8], ptr %30, i64 0, i64 0
  %32 = call noundef nonnull align 8 dereferenceable(8) ptr @_ZStlsISt11char_traitsIcEERSt13basic_ostreamIcT_ES5_PKc(ptr noundef nonnull align 8 dereferenceable(8) %24, ptr noundef %31)
  %33 = call noundef nonnull align 8 dereferenceable(8) ptr @_ZStlsISt11char_traitsIcEERSt13basic_ostreamIcT_ES5_PKc(ptr noundef nonnull align 8 dereferenceable(8) %32, ptr noundef @.str.1)
  %34 = load i8, ptr %8, align 1, !tbaa !158, !range !156, !noundef !157
  %35 = trunc i8 %34 to i1
  br i1 %35, label %36, label %37

36:                                               ; preds = %29
  br label %38

37:                                               ; preds = %29
  br label %38

38:                                               ; preds = %37, %36
  %39 = phi ptr [ @.str.13, %36 ], [ @.str.14, %37 ]
  %40 = getelementptr inbounds [2 x i8], ptr %39, i64 0, i64 0
  %41 = call noundef nonnull align 8 dereferenceable(8) ptr @_ZStlsISt11char_traitsIcEERSt13basic_ostreamIcT_ES5_PKc(ptr noundef nonnull align 8 dereferenceable(8) %33, ptr noundef %40)
  call void @llvm.lifetime.end.p0(i64 24, ptr %9) #3
  %42 = getelementptr inbounds nuw %"class.sls::bv_plugin", ptr %13, i32 0, i32 2
  %43 = load ptr, ptr %6, align 8, !tbaa !97
  %44 = call noundef zeroext i1 @_ZNK14bv_recognizers5is_bvEPK4expr(ptr noundef nonnull align 4 dereferenceable(4) %42, ptr noundef %43)
  br i1 %44, label %45, label %52

45:                                               ; preds = %38
  %46 = call noundef nonnull align 8 dereferenceable(8) ptr @_Z14verbose_streamv()
  %47 = call noundef nonnull align 8 dereferenceable(8) ptr @_ZStlsISt11char_traitsIcEERSt13basic_ostreamIcT_ES5_PKc(ptr noundef nonnull align 8 dereferenceable(8) %46, ptr noundef @.str.1)
  %48 = getelementptr inbounds nuw %"class.sls::bv_plugin", ptr %13, i32 0, i32 4
  %49 = load ptr, ptr %6, align 8, !tbaa !97
  %50 = call noundef nonnull align 8 dereferenceable(184) ptr @_ZNK3sls7bv_eval4wvalEP4expr(ptr noundef nonnull align 8 dereferenceable(865) %48, ptr noundef %49)
  %51 = call noundef nonnull align 8 dereferenceable(8) ptr @_ZN3slslsERSoRKNS_12bv_valuationE(ptr noundef nonnull align 8 dereferenceable(8) %47, ptr noundef nonnull align 8 dereferenceable(184) %50)
  br label %52

52:                                               ; preds = %45, %38
  %53 = call noundef nonnull align 8 dereferenceable(8) ptr @_Z14verbose_streamv()
  %54 = call noundef nonnull align 8 dereferenceable(8) ptr @_ZStlsISt11char_traitsIcEERSt13basic_ostreamIcT_ES5_PKc(ptr noundef nonnull align 8 dereferenceable(8) %53, ptr noundef @.str.2)
  call void @_Z14verbose_unlockv()
  br label %92

55:                                               ; preds = %16
  %56 = call noundef nonnull align 8 dereferenceable(8) ptr @_Z14verbose_streamv()
  call void @llvm.lifetime.start.p0(i64 24, ptr %10) #3
  %57 = load ptr, ptr %6, align 8, !tbaa !97
  %58 = getelementptr inbounds nuw %"class.sls::plugin", ptr %13, i32 0, i32 2
  %59 = load ptr, ptr %58, align 8, !tbaa !12
  call void @_ZN13mk_bounded_ppC2EP3astR11ast_managerj(ptr noundef nonnull align 8 dereferenceable(20) %10, ptr noundef %57, ptr noundef nonnull align 8 dereferenceable(976) %59, i32 noundef 3)
  %60 = call noundef nonnull align 8 dereferenceable(8) ptr @_ZlsRSoRK13mk_bounded_pp(ptr noundef nonnull align 8 dereferenceable(8) %56, ptr noundef nonnull align 8 dereferenceable(20) %10)
  %61 = call noundef nonnull align 8 dereferenceable(8) ptr @_ZStlsISt11char_traitsIcEERSt13basic_ostreamIcT_ES5_PKc(ptr noundef nonnull align 8 dereferenceable(8) %60, ptr noundef @.str.1)
  %62 = load i8, ptr %7, align 1, !tbaa !158, !range !156, !noundef !157
  %63 = trunc i8 %62 to i1
  br i1 %63, label %64, label %65

64:                                               ; preds = %55
  br label %66

65:                                               ; preds = %55
  br label %66

66:                                               ; preds = %65, %64
  %67 = phi ptr [ @.str.11, %64 ], [ @.str.12, %65 ]
  %68 = getelementptr inbounds [2 x i8], ptr %67, i64 0, i64 0
  %69 = call noundef nonnull align 8 dereferenceable(8) ptr @_ZStlsISt11char_traitsIcEERSt13basic_ostreamIcT_ES5_PKc(ptr noundef nonnull align 8 dereferenceable(8) %61, ptr noundef %68)
  %70 = call noundef nonnull align 8 dereferenceable(8) ptr @_ZStlsISt11char_traitsIcEERSt13basic_ostreamIcT_ES5_PKc(ptr noundef nonnull align 8 dereferenceable(8) %69, ptr noundef @.str.1)
  %71 = load i8, ptr %8, align 1, !tbaa !158, !range !156, !noundef !157
  %72 = trunc i8 %71 to i1
  br i1 %72, label %73, label %74

73:                                               ; preds = %66
  br label %75

74:                                               ; preds = %66
  br label %75

75:                                               ; preds = %74, %73
  %76 = phi ptr [ @.str.13, %73 ], [ @.str.14, %74 ]
  %77 = getelementptr inbounds [2 x i8], ptr %76, i64 0, i64 0
  %78 = call noundef nonnull align 8 dereferenceable(8) ptr @_ZStlsISt11char_traitsIcEERSt13basic_ostreamIcT_ES5_PKc(ptr noundef nonnull align 8 dereferenceable(8) %70, ptr noundef %77)
  call void @llvm.lifetime.end.p0(i64 24, ptr %10) #3
  %79 = getelementptr inbounds nuw %"class.sls::bv_plugin", ptr %13, i32 0, i32 2
  %80 = load ptr, ptr %6, align 8, !tbaa !97
  %81 = call noundef zeroext i1 @_ZNK14bv_recognizers5is_bvEPK4expr(ptr noundef nonnull align 4 dereferenceable(4) %79, ptr noundef %80)
  br i1 %81, label %82, label %89

82:                                               ; preds = %75
  %83 = call noundef nonnull align 8 dereferenceable(8) ptr @_Z14verbose_streamv()
  %84 = call noundef nonnull align 8 dereferenceable(8) ptr @_ZStlsISt11char_traitsIcEERSt13basic_ostreamIcT_ES5_PKc(ptr noundef nonnull align 8 dereferenceable(8) %83, ptr noundef @.str.1)
  %85 = getelementptr inbounds nuw %"class.sls::bv_plugin", ptr %13, i32 0, i32 4
  %86 = load ptr, ptr %6, align 8, !tbaa !97
  %87 = call noundef nonnull align 8 dereferenceable(184) ptr @_ZNK3sls7bv_eval4wvalEP4expr(ptr noundef nonnull align 8 dereferenceable(865) %85, ptr noundef %86)
  %88 = call noundef nonnull align 8 dereferenceable(8) ptr @_ZN3slslsERSoRKNS_12bv_valuationE(ptr noundef nonnull align 8 dereferenceable(8) %84, ptr noundef nonnull align 8 dereferenceable(184) %87)
  br label %89

89:                                               ; preds = %82, %75
  %90 = call noundef nonnull align 8 dereferenceable(8) ptr @_Z14verbose_streamv()
  %91 = call noundef nonnull align 8 dereferenceable(8) ptr @_ZStlsISt11char_traitsIcEERSt13basic_ostreamIcT_ES5_PKc(ptr noundef nonnull align 8 dereferenceable(8) %90, ptr noundef @.str.2)
  br label %92

92:                                               ; preds = %89, %52
  br label %93

93:                                               ; preds = %92, %4
  ret void
}