; Function Attrs: mustprogress uwtable
define hidden void @_ZN3sls9bv_plugin3logEP4exprbb(ptr noundef nonnull align 8 dereferenceable(1049) %0, ptr noundef %1, i1 noundef zeroext %2, i1 noundef zeroext %3) local_unnamed_addr #3 align 2 {
  %5 = tail call noundef i32 @_Z19get_verbosity_levelv()
  %6 = icmp ugt i32 %5, 10
  br i1 %6, label %7, label %51

7:                                                ; preds = %4
  %8 = tail call noundef zeroext i1 @_Z11is_threadedv()
  br i1 %8, label %9, label %30

9:                                                ; preds = %7
  tail call void @_Z12verbose_lockv()
  %10 = tail call noundef nonnull align 8 dereferenceable(8) ptr @_Z14verbose_streamv()
  %11 = getelementptr inbounds nuw i8, ptr %0, i64 16
  %12 = load ptr, ptr %11, align 8, !tbaa !6
  tail call void @_Z17ast_ll_bounded_ppRSoR11ast_managerP3astj(ptr noundef nonnull align 8 dereferenceable(8) %10, ptr noundef nonnull align 8 dereferenceable(976) %12, ptr noundef %1, i32 noundef 3)
  %13 = tail call noundef nonnull align 8 dereferenceable(8) ptr @_ZSt16__ostream_insertIcSt11char_traitsIcEERSt13basic_ostreamIT_T0_ES6_PKS3_l(ptr noundef nonnull align 8 dereferenceable(8) %10, ptr noundef nonnull @.str.1, i64 noundef 1)
  %.str.11..str.12 = select i1 %2, ptr @.str.11, ptr @.str.12
  %14 = tail call noundef nonnull align 8 dereferenceable(8) ptr @_ZSt16__ostream_insertIcSt11char_traitsIcEERSt13basic_ostreamIT_T0_ES6_PKS3_l(ptr noundef nonnull align 8 dereferenceable(8) %10, ptr noundef nonnull %.str.11..str.12, i64 noundef 1)
  %15 = tail call noundef nonnull align 8 dereferenceable(8) ptr @_ZSt16__ostream_insertIcSt11char_traitsIcEERSt13basic_ostreamIT_T0_ES6_PKS3_l(ptr noundef nonnull align 8 dereferenceable(8) %10, ptr noundef nonnull @.str.1, i64 noundef 1)
  %16 = select i1 %3, ptr @.str.13, ptr @.str.14
  %17 = tail call noundef nonnull align 8 dereferenceable(8) ptr @_ZSt16__ostream_insertIcSt11char_traitsIcEERSt13basic_ostreamIT_T0_ES6_PKS3_l(ptr noundef nonnull align 8 dereferenceable(8) %10, ptr noundef nonnull %16, i64 noundef 1)
  %18 = getelementptr inbounds nuw i8, ptr %0, i64 32
  %19 = tail call noundef ptr @_ZNK4expr8get_sortEv(ptr noundef nonnull align 4 dereferenceable(16) %1)
  %20 = tail call noundef zeroext i1 @_ZNK14bv_recognizers10is_bv_sortEPK4sort(ptr noundef nonnull align 4 dereferenceable(4) %18, ptr noundef %19)
  br i1 %20, label %21, label %27

21:                                               ; preds = %9
  %22 = tail call noundef nonnull align 8 dereferenceable(8) ptr @_Z14verbose_streamv()
  %23 = tail call noundef nonnull align 8 dereferenceable(8) ptr @_ZSt16__ostream_insertIcSt11char_traitsIcEERSt13basic_ostreamIT_T0_ES6_PKS3_l(ptr noundef nonnull align 8 dereferenceable(8) %22, ptr noundef nonnull @.str.1, i64 noundef 1)
  %24 = getelementptr inbounds nuw i8, ptr %0, i64 120
  %25 = tail call noundef nonnull align 8 dereferenceable(184) ptr @_ZNK3sls7bv_eval4wvalEP4expr(ptr noundef nonnull align 8 dereferenceable(865) %24, ptr noundef nonnull %1)
  %26 = tail call noundef nonnull align 8 dereferenceable(8) ptr @_ZNK3sls12bv_valuation7displayERSo(ptr noundef nonnull align 8 dereferenceable(184) %25, ptr noundef nonnull align 8 dereferenceable(8) %22)
  br label %27

27:                                               ; preds = %21, %9
  %28 = tail call noundef nonnull align 8 dereferenceable(8) ptr @_Z14verbose_streamv()
  %29 = tail call noundef nonnull align 8 dereferenceable(8) ptr @_ZSt16__ostream_insertIcSt11char_traitsIcEERSt13basic_ostreamIT_T0_ES6_PKS3_l(ptr noundef nonnull align 8 dereferenceable(8) %28, ptr noundef nonnull @.str.2, i64 noundef 1)
  tail call void @_Z14verbose_unlockv()
  br label %51

30:                                               ; preds = %7
  %31 = tail call noundef nonnull align 8 dereferenceable(8) ptr @_Z14verbose_streamv()
  %32 = getelementptr inbounds nuw i8, ptr %0, i64 16
  %33 = load ptr, ptr %32, align 8, !tbaa !6
  tail call void @_Z17ast_ll_bounded_ppRSoR11ast_managerP3astj(ptr noundef nonnull align 8 dereferenceable(8) %31, ptr noundef nonnull align 8 dereferenceable(976) %33, ptr noundef %1, i32 noundef 3)
  %34 = tail call noundef nonnull align 8 dereferenceable(8) ptr @_ZSt16__ostream_insertIcSt11char_traitsIcEERSt13basic_ostreamIT_T0_ES6_PKS3_l(ptr noundef nonnull align 8 dereferenceable(8) %31, ptr noundef nonnull @.str.1, i64 noundef 1)
  %.str.11..str.121 = select i1 %2, ptr @.str.11, ptr @.str.12
  %35 = tail call noundef nonnull align 8 dereferenceable(8) ptr @_ZSt16__ostream_insertIcSt11char_traitsIcEERSt13basic_ostreamIT_T0_ES6_PKS3_l(ptr noundef nonnull align 8 dereferenceable(8) %31, ptr noundef nonnull %.str.11..str.121, i64 noundef 1)
  %36 = tail call noundef nonnull align 8 dereferenceable(8) ptr @_ZSt16__ostream_insertIcSt11char_traitsIcEERSt13basic_ostreamIT_T0_ES6_PKS3_l(ptr noundef nonnull align 8 dereferenceable(8) %31, ptr noundef nonnull @.str.1, i64 noundef 1)
  %37 = select i1 %3, ptr @.str.13, ptr @.str.14
  %38 = tail call noundef nonnull align 8 dereferenceable(8) ptr @_ZSt16__ostream_insertIcSt11char_traitsIcEERSt13basic_ostreamIT_T0_ES6_PKS3_l(ptr noundef nonnull align 8 dereferenceable(8) %31, ptr noundef nonnull %37, i64 noundef 1)
  %39 = getelementptr inbounds nuw i8, ptr %0, i64 32
  %40 = tail call noundef ptr @_ZNK4expr8get_sortEv(ptr noundef nonnull align 4 dereferenceable(16) %1)
  %41 = tail call noundef zeroext i1 @_ZNK14bv_recognizers10is_bv_sortEPK4sort(ptr noundef nonnull align 4 dereferenceable(4) %39, ptr noundef %40)
  br i1 %41, label %42, label %48

42:                                               ; preds = %30
  %43 = tail call noundef nonnull align 8 dereferenceable(8) ptr @_Z14verbose_streamv()
  %44 = tail call noundef nonnull align 8 dereferenceable(8) ptr @_ZSt16__ostream_insertIcSt11char_traitsIcEERSt13basic_ostreamIT_T0_ES6_PKS3_l(ptr noundef nonnull align 8 dereferenceable(8) %43, ptr noundef nonnull @.str.1, i64 noundef 1)
  %45 = getelementptr inbounds nuw i8, ptr %0, i64 120
  %46 = tail call noundef nonnull align 8 dereferenceable(184) ptr @_ZNK3sls7bv_eval4wvalEP4expr(ptr noundef nonnull align 8 dereferenceable(865) %45, ptr noundef nonnull %1)
  %47 = tail call noundef nonnull align 8 dereferenceable(8) ptr @_ZNK3sls12bv_valuation7displayERSo(ptr noundef nonnull align 8 dereferenceable(184) %46, ptr noundef nonnull align 8 dereferenceable(8) %43)
  br label %48

48:                                               ; preds = %42, %30
  %49 = tail call noundef nonnull align 8 dereferenceable(8) ptr @_Z14verbose_streamv()
  %50 = tail call noundef nonnull align 8 dereferenceable(8) ptr @_ZSt16__ostream_insertIcSt11char_traitsIcEERSt13basic_ostreamIT_T0_ES6_PKS3_l(ptr noundef nonnull align 8 dereferenceable(8) %49, ptr noundef nonnull @.str.2, i64 noundef 1)
  br label %51

51:                                               ; preds = %27, %48, %4
  ret void
}